target datalayout = "e-m:e-p270:32:32-p271:32:32-p272:64:64-i64:64-i128:128-f80:128-n8:16:32:64-S128"
target triple = "x86_64-pc-linux-gnu"

%struct.darktable_t = type { %struct.dt_codepath_t, i32, i32, ptr, ptr, ptr, ptr, ptr, ptr, ptr, ptr, ptr, ptr, ptr, ptr, ptr, ptr, ptr, ptr, ptr, ptr, ptr, ptr, ptr, ptr, ptr, ptr, ptr, ptr, ptr, [64 x %struct.dt_pthread_mutex_t], %struct.dt_pthread_mutex_t, %struct.dt_pthread_mutex_t, %struct.dt_pthread_mutex_t, %struct.dt_pthread_mutex_t, %struct.dt_pthread_mutex_t, ptr, ptr, ptr, ptr, ptr, ptr, ptr, ptr, ptr, ptr, ptr, ptr, ptr, %struct.dt_lua_state_t, ptr, double, ptr, i32, [47 x i32], i32, i32, ptr, ptr, %struct.dt_sys_resources_t, %struct.dt_backthumb_t, %struct.dt_gimp_t }
%struct.dt_codepath_t = type { i8, [3 x i8] }
%struct.dt_pthread_mutex_t = type { %union.pthread_mutex_t }
%union.pthread_mutex_t = type { %struct.__pthread_mutex_s }
%struct.__pthread_mutex_s = type { i32, i32, i32, i32, i32, i16, i16, %struct.__pthread_internal_list }
%struct.__pthread_internal_list = type { ptr, ptr }
%struct.dt_lua_state_t = type { i32 }
%struct.dt_sys_resources_t = type { i64, i64, ptr, ptr, i32 }
%struct.dt_backthumb_t = type { double, double, i32, i32, i32, i32 }
%struct.dt_gimp_t = type { i32, ptr, ptr, i32, i32 }
%struct._GdkRGBA = type { double, double, double, double }
%struct._GdkEventScroll = type { i32, ptr, i8, i32, double, double, i32, i32, ptr, double, double, double, double, i8 }
%struct.dt_gui_gtk_t = type { ptr, %struct.dt_gui_widgets_t, %struct.dt_gui_scrollbars_t, i32, ptr, i32, [39 x %struct._GdkRGBA], i32, i32, i32, i32, i32, double, double, double, double, ptr, double, double, double, double, i32, i32, [4096 x i8], i32, i32, i32, %struct.dt_pthread_mutex_t }
%struct.dt_gui_widgets_t = type { ptr, ptr, ptr, ptr, i32, i32, i32 }
%struct.dt_gui_scrollbars_t = type { ptr, ptr, i32 }

@.str.6 = private unnamed_addr constant [35 x i8] c"darkroom/ui/sidebar_scroll_default\00", align 1
@darktable = external global %struct.darktable_t, align 8

; Function Attrs: nounwind uwtable
define i32 @dt_gui_ignore_scroll(ptr noundef %0) #0 {
  %2 = alloca i32, align 4
  %3 = alloca ptr, align 8
  %4 = alloca i32, align 4
  %5 = alloca i32, align 4
  %6 = alloca i32, align 4
  store ptr %0, ptr %3, align 8, !tbaa !15
  call void @llvm.lifetime.start.p0(i64 4, ptr %4) #15
  %7 = call i32 @dt_conf_get_bool(ptr noundef @.str.6)
  store i32 %7, ptr %4, align 4, !tbaa !17
  call void @llvm.lifetime.start.p0(i64 4, ptr %5) #15
  %8 = load ptr, ptr %3, align 8, !tbaa !15
  %9 = getelementptr inbounds nuw %struct._GdkEventScroll, ptr %8, i32 0, i32 6
  %10 = load i32, ptr %9, align 8, !tbaa !19
  %11 = call i32 @gtk_accelerator_get_default_mod_mask()
  %12 = and i32 %10, %11
  store i32 %12, ptr %5, align 4, !tbaa !17
  %13 = load i32, ptr %5, align 4, !tbaa !17
  %14 = icmp eq i32 %13, 0
  br i1 %14, label %15, label %17

15:                                               ; preds = %1
  %16 = load i32, ptr %4, align 4, !tbaa !17
  store i32 %16, ptr %2, align 4
  store i32 1, ptr %6, align 4
  br label %37

17:                                               ; preds = %1
  %18 = load i32, ptr %5, align 4, !tbaa !17
  %19 = load ptr, ptr getelementptr inbounds nuw (%struct.darktable_t, ptr @darktable, i32 0, i32 14), align 8, !tbaa !24
  %20 = getelementptr inbounds nuw %struct.dt_gui_gtk_t, ptr %19, i32 0, i32 25
  %21 = load i32, ptr %20, align 4, !tbaa !60
  %22 = icmp eq i32 %18, %21
  br i1 %22, label %23, label %36

23:                                               ; preds = %17
  %24 = load i32, ptr %4, align 4, !tbaa !17
  %25 = icmp ne i32 %24, 0
  br i1 %25, label %27, label %26

26:                                               ; preds = %23
  store i32 1, ptr %2, align 4
  store i32 1, ptr %6, align 4
  br label %37

27:                                               ; preds = %23
  %28 = load ptr, ptr getelementptr inbounds nuw (%struct.darktable_t, ptr @darktable, i32 0, i32 14), align 8, !tbaa !24
  %29 = getelementptr inbounds nuw %struct.dt_gui_gtk_t, ptr %28, i32 0, i32 25
  %30 = load i32, ptr %29, align 4, !tbaa !60
  %31 = xor i32 %30, -1
  %32 = load ptr, ptr %3, align 8, !tbaa !15
  %33 = getelementptr inbounds nuw %struct._GdkEventScroll, ptr %32, i32 0, i32 6
  %34 = load i32, ptr %33, align 8, !tbaa !19
  %35 = and i32 %34, %31
  store i32 %35, ptr %33, align 8, !tbaa !19
  br label %36

36:                                               ; preds = %27, %17
  store i32 0, ptr %2, align 4
  store i32 1, ptr %6, align 4
  br label %37

37:                                               ; preds = %36, %26, %15
  call void @llvm.lifetime.end.p0(i64 4, ptr %5) #15
  call void @llvm.lifetime.end.p0(i64 4, ptr %4) #15
  %38 = load i32, ptr %2, align 4
  ret i32 %38
}