; Function Attrs: nounwind uwtable
define i32 @dt_gui_ignore_scroll(ptr noundef captures(none) %0) local_unnamed_addr #0 {
  %2 = tail call i32 @dt_conf_get_bool(ptr noundef nonnull @.str.6) #18
  %3 = getelementptr inbounds nuw i8, ptr %0, i64 40
  %4 = load i32, ptr %3, align 8, !tbaa !6
  %5 = tail call i32 @gtk_accelerator_get_default_mod_mask() #18
  %6 = and i32 %5, %4
  %7 = icmp eq i32 %6, 0
  br i1 %7, label %18, label %8

8:                                                ; preds = %1
  %9 = load ptr, ptr getelementptr inbounds nuw (i8, ptr @darktable, i64 104), align 8, !tbaa !15
  %10 = getelementptr inbounds nuw i8, ptr %9, i64 5556
  %11 = load i32, ptr %10, align 4, !tbaa !52
  %12 = icmp eq i32 %6, %11
  br i1 %12, label %13, label %18

13:                                               ; preds = %8
  %.not = icmp eq i32 %2, 0
  br i1 %.not, label %18, label %14

14:                                               ; preds = %13
  %15 = xor i32 %6, -1
  %16 = load i32, ptr %3, align 8, !tbaa !6
  %17 = and i32 %16, %15
  store i32 %17, ptr %3, align 8, !tbaa !6
  br label %18

18:                                               ; preds = %8, %14, %13, %1
  %.0 = phi i32 [ %2, %1 ], [ 1, %13 ], [ 0, %14 ], [ 0, %8 ]
  ret i32 %.0
}